(lp0
(lp1
S'LOD1_641_5482_1_BY.xml'
p2
actime
struct_time
p3
((I2014
I4
I8
I15
I37
I42
I1
I98
I0
tp4
(dp5
tp6
Rp7
aS'Number of solids in file:53\nNumber of invalid solids: 1\nErrors present:\n302 DANGLING_FACES'
p8
aa(lp9
S'LOD1_641_5482_1_BY.xml'
p10
ag3
((I2014
I4
I8
I15
I38
I12
I1
I98
I0
tp11
(dp12
tp13
Rp14
aS'Number of solids in file:53\nNumber of invalid solids: 1\nErrors present:\n302 DANGLING_FACES'
p15
aa.