(lp0
(lp1
S'LOD1_641_5482_1_BY.xml'
p2
actime
struct_time
p3
((I2014
I4
I8
I15
I37
I42
I1
I98
I0
tp4
(dp5
tp6
Rp7
aS'Number of solids in file:53\nNumber of invalid solids: 1\nErrors present:\n302 DANGLING_FACES'
p8
aa(lp9
S'LOD1_641_5482_1_BY.xml'
p10
ag3
((I2014
I4
I8
I15
I38
I12
I1
I98
I0
tp11
(dp12
tp13
Rp14
aS'Number of solids in file:53\nNumber of invalid solids: 1\nErrors present:\n302 DANGLING_FACES'
p15
aa(lp16
S'LOD2_4424_5482_solid.gml'
p17
ag3
((I2014
I4
I9
I7
I59
I41
I2
I99
I0
tp18
(dp19
tp20
Rp21
aS'Number of solids in file:111\nNumber of invalid solids: 22\nErrors present:\n210 NON_PLANAR_SURFACE303 FACE_ORIENTATION_INCORRECT_EDGE_USAGE'
p22
aa(lp23
S'LOD1_642_5482_1_BY.gml'
p24
ag3
((I2014
I4
I9
I8
I51
I31
I2
I99
I0
tp25
(dp26
tp27
Rp28
aS'Number of solids in file:52\nNumber of invalid solids: 0\nHourrraaa!\n'
p29
aa(lp30
S'LOD2_4424_5482_solid.gml'
p31
ag3
((I2014
I4
I9
I9
I9
I13
I2
I99
I0
tp32
(dp33
tp34
Rp35
aS'Number of solids in file:111\nNumber of invalid solids: 22\nErrors present:\n210 NON_PLANAR_SURFACE303 FACE_ORIENTATION_INCORRECT_EDGE_USAGE'
p36
aa(lp37
S'LOD2_4424_5482_solid.gml'
p38
ag3
((I2014
I4
I9
I9
I13
I28
I2
I99
I0
tp39
(dp40
tp41
Rp42
aS'Number of solids in file:111\nNumber of invalid solids: 22\nErrors present:\n210 NON_PLANAR_SURFACE303 FACE_ORIENTATION_INCORRECT_EDGE_USAGE'
p43
aa(lp44
S'LOD2_4424_5482_solid.gml'
p45
ag3
((I2014
I4
I9
I9
I14
I24
I2
I99
I0
tp46
(dp47
tp48
Rp49
aS'Number of solids in file:111\nNumber of invalid solids: 22\nErrors present:\n210 NON_PLANAR_SURFACE303 FACE_ORIENTATION_INCORRECT_EDGE_USAGE'
p50
aa(lp51
S'LOD2_4424_5482_solid.gml'
p52
ag3
((I2014
I4
I9
I9
I39
I21
I2
I99
I0
tp53
(dp54
tp55
Rp56
aS'Number of solids in file:111\nNumber of invalid solids: 22\nErrors present:\n210 NON_PLANAR_SURFACE\n303 FACE_ORIENTATION_INCORRECT_EDGE_USAGE\n'
p57
aa(lp58
S'LOD2_4424_5482_solid.gml'
p59
ag3
((I2014
I4
I9
I9
I53
I35
I2
I99
I0
tp60
(dp61
tp62
Rp63
aS'Number of solids in file:111\nNumber of invalid solids: 22\nErrors present:\n210 NON_PLANAR_SURFACE\n303 FACE_ORIENTATION_INCORRECT_EDGE_USAGE\n'
p64
aa(lp65
S'LOD1_642_5482_1_BY.gml'
p66
ag3
((I2014
I4
I9
I9
I54
I7
I2
I99
I0
tp67
(dp68
tp69
Rp70
aS'Number of solids in file:52\nNumber of invalid solids: 0\nHourrraaa!\n'
p71
aa.